target datalayout = "e-m:e-p270:32:32-p271:32:32-p272:64:64-i64:64-i128:128-f80:128-n8:16:32:64-S128"
target triple = "x86_64-pc-linux-gnu"

%struct.mi_memid_s = type { %union.anon, i8, i8, i8, i32 }
%union.anon = type { %struct.mi_memid_os_info }
%struct.mi_memid_os_info = type { ptr, i64 }
%struct.mi_memid_arena_info = type { i64, i32, i8 }

; Function Attrs: nounwind uwtable
define hidden i32 @_mi_arena_id_none() #0 {
  ret i32 0
}

; Function Attrs: nounwind uwtable
define internal zeroext i1 @mi_arena_id_is_suitable(i32 noundef %0, i1 noundef zeroext %1, i32 noundef %2) #0 {
  %4 = alloca i32, align 4
  %5 = alloca i8, align 1
  %6 = alloca i32, align 4
  store i32 %0, ptr %4, align 4, !tbaa !52
  %7 = zext i1 %1 to i8
  store i8 %7, ptr %5, align 1, !tbaa !21
  store i32 %2, ptr %6, align 4, !tbaa !52
  %8 = load i8, ptr %5, align 1, !tbaa !21, !range !22, !noundef !23
  %9 = trunc i8 %8 to i1
  br i1 %9, label %14, label %10

10:                                               ; preds = %3
  %11 = load i32, ptr %6, align 4, !tbaa !52
  %12 = call i32 @_mi_arena_id_none() #12
  %13 = icmp eq i32 %11, %12
  br i1 %13, label %18, label %14

14:                                               ; preds = %10, %3
  %15 = load i32, ptr %4, align 4, !tbaa !52
  %16 = load i32, ptr %6, align 4, !tbaa !52
  %17 = icmp eq i32 %15, %16
  br label %18

18:                                               ; preds = %14, %10
  %19 = phi i1 [ true, %10 ], [ %17, %14 ]
  ret i1 %19
}

; Function Attrs: nounwind uwtable
define hidden zeroext i1 @_mi_arena_memid_is_suitable(ptr noundef byval(%struct.mi_memid_s) align 8 %0, i32 noundef %1) #0 {
  %3 = alloca i1, align 1
  %4 = alloca i32, align 4
  store i32 %1, ptr %4, align 4, !tbaa !52
  %5 = getelementptr inbounds nuw %struct.mi_memid_s, ptr %0, i32 0, i32 4
  %6 = load i32, ptr %5, align 4, !tbaa !59
  %7 = icmp eq i32 %6, 6
  br i1 %7, label %8, label %18

8:                                                ; preds = %2
  %9 = getelementptr inbounds nuw %struct.mi_memid_s, ptr %0, i32 0, i32 0
  %10 = getelementptr inbounds nuw %struct.mi_memid_arena_info, ptr %9, i32 0, i32 1
  %11 = load i32, ptr %10, align 8, !tbaa !33
  %12 = getelementptr inbounds nuw %struct.mi_memid_s, ptr %0, i32 0, i32 0
  %13 = getelementptr inbounds nuw %struct.mi_memid_arena_info, ptr %12, i32 0, i32 2
  %14 = load i8, ptr %13, align 4, !tbaa !33, !range !22, !noundef !23
  %15 = trunc i8 %14 to i1
  %16 = load i32, ptr %4, align 4, !tbaa !52
  %17 = call zeroext i1 @mi_arena_id_is_suitable(i32 noundef %11, i1 noundef zeroext %15, i32 noundef %16) #12
  store i1 %17, ptr %3, align 1
  br label %22

18:                                               ; preds = %2
  %19 = call i32 @_mi_arena_id_none() #12
  %20 = load i32, ptr %4, align 4, !tbaa !52
  %21 = call zeroext i1 @mi_arena_id_is_suitable(i32 noundef %19, i1 noundef zeroext false, i32 noundef %20) #12
  store i1 %21, ptr %3, align 1
  br label %22

22:                                               ; preds = %18, %8
  %23 = load i1, ptr %3, align 1
  ret i1 %23
}