; Function Attrs: mustprogress nofree norecurse nosync nounwind willreturn memory(argmem: read) uwtable
define hidden zeroext i1 @_mi_arena_memid_is_suitable(ptr noundef readonly byval(%struct.mi_memid_s) align 8 captures(none) %0, i32 noundef %1) local_unnamed_addr #6 {
  %3 = getelementptr inbounds nuw i8, ptr %0, i64 20
  %4 = load i32, ptr %3, align 4, !tbaa !46
  %5 = icmp eq i32 %4, 6
  br i1 %5, label %6, label %14

6:                                                ; preds = %2
  %7 = getelementptr inbounds nuw i8, ptr %0, i64 8
  %8 = load i32, ptr %7, align 8, !tbaa !24
  %9 = getelementptr inbounds nuw i8, ptr %0, i64 12
  %10 = load i8, ptr %9, align 4, !tbaa !24, !range !26, !noundef !27
  %11 = trunc nuw i8 %10 to i1
  %.not.i = xor i1 %11, true
  %12 = icmp eq i32 %1, 0
  %or.cond.i = and i1 %12, %.not.i
  %13 = icmp eq i32 %8, %1
  %spec.select.i = or i1 %13, %or.cond.i
  br label %16

14:                                               ; preds = %2
  %15 = icmp eq i32 %1, 0
  br label %16

16:                                               ; preds = %14, %6
  %.0 = phi i1 [ %spec.select.i, %6 ], [ %15, %14 ]
  ret i1 %.0
}